; Function Attrs: nounwind uwtable
define ptr @l_Lean_Meta_LazyDiscrTree_MatchResult_appendResults___rarg___boxed(ptr noundef %0, ptr noundef %1) #1 {
  %3 = getelementptr i8, ptr %0, i64 8
  %.val.i.i = load i64, ptr %3, align 8, !tbaa !14
  %4 = shl i64 %.val.i.i, 1
  %5 = or disjoint i64 %4, 1
  %6 = inttoptr i64 %5 to ptr
  %7 = tail call ptr @l_Nat_foldTR_loop___at_Lean_Meta_LazyDiscrTree_MatchResult_appendResults___spec__4___rarg(ptr readonly poison, ptr noundef readonly %0, ptr noundef nonnull %6, ptr noundef nonnull %6, ptr noundef nonnull %6, ptr nonnull poison, ptr noundef %1)
  %8 = ptrtoint ptr %0 to i64
  %9 = and i64 %8, 1
  %.not = icmp eq i64 %9, 0
  br i1 %.not, label %10, label %lean_dec.exit

10:                                               ; preds = %2
  %11 = load i32, ptr %0, align 4, !tbaa !8
  %12 = icmp sgt i32 %11, 1
  br i1 %12, label %13, label %15, !prof !11

13:                                               ; preds = %10
  %14 = add nsw i32 %11, -1
  store i32 %14, ptr %0, align 4, !tbaa !8
  br label %lean_dec.exit

15:                                               ; preds = %10
  %.not.i = icmp eq i32 %11, 0
  br i1 %.not.i, label %lean_dec.exit, label %16

16:                                               ; preds = %15
  tail call void @lean_dec_ref_cold(ptr noundef nonnull %0) #6
  br label %lean_dec.exit

lean_dec.exit:                                    ; preds = %16, %15, %13, %2
  ret ptr %7
}